target datalayout = "e-m:e-p270:32:32-p271:32:32-p272:64:64-i64:64-f80:128-n8:16:32:64-S128"
target triple = "x86_64-pc-linux-gnu"

%struct.ill = type { [10 x i8], i32, i32 }

@.str = private unnamed_addr constant [3 x i8] c"%d\00", align 1
@.str.1 = private unnamed_addr constant [5 x i8] c"%s%d\00", align 1
@.str.2 = private unnamed_addr constant [4 x i8] c"%s\0A\00", align 1

; Function Attrs: noinline nounwind uwtable
define dso_local i32 @main() #0 {
  %1 = alloca i32, align 4
  %2 = alloca i32, align 4
  %3 = alloca i32, align 4
  %4 = alloca i32, align 4
  %5 = alloca i32, align 4
  %6 = alloca [100 x %struct.ill], align 16
  %7 = alloca %struct.ill, align 4
  store i32 0, i32* %1, align 4
  %8 = call i32 (i8*, ...) @__isoc99_scanf(i8* getelementptr inbounds ([3 x i8], [3 x i8]* @.str, i64 0, i64 0), i32* %2)
  store i32 0, i32* %3, align 4
  br label %9

9:                                                ; preds = %29, %0
  %10 = load i32, i32* %3, align 4
  %11 = load i32, i32* %2, align 4
  %12 = icmp slt i32 %10, %11
  br i1 %12, label %13, label %32

13:                                               ; preds = %9
  %14 = load i32, i32* %3, align 4
  %15 = sext i32 %14 to i64
  %16 = getelementptr inbounds [100 x %struct.ill], [100 x %struct.ill]* %6, i64 0, i64 %15
  %17 = getelementptr inbounds %struct.ill, %struct.ill* %16, i32 0, i32 0
  %18 = getelementptr inbounds [10 x i8], [10 x i8]* %17, i64 0, i64 0
  %19 = load i32, i32* %3, align 4
  %20 = sext i32 %19 to i64
  %21 = getelementptr inbounds [100 x %struct.ill], [100 x %struct.ill]* %6, i64 0, i64 %20
  %22 = getelementptr inbounds %struct.ill, %struct.ill* %21, i32 0, i32 1
  %23 = call i32 (i8*, ...) @__isoc99_scanf(i8* getelementptr inbounds ([5 x i8], [5 x i8]* @.str.1, i64 0, i64 0), i8* %18, i32* %22)
  %24 = load i32, i32* %3, align 4
  %25 = load i32, i32* %3, align 4
  %26 = sext i32 %25 to i64
  %27 = getelementptr inbounds [100 x %struct.ill], [100 x %struct.ill]* %6, i64 0, i64 %26
  %28 = getelementptr inbounds %struct.ill, %struct.ill* %27, i32 0, i32 2
  store i32 %24, i32* %28, align 4
  br label %29

29:                                               ; preds = %13
  %30 = load i32, i32* %3, align 4
  %31 = add nsw i32 %30, 1
  store i32 %31, i32* %3, align 4
  br label %9

32:                                               ; preds = %9
  store i32 0, i32* %3, align 4
  br label %33

33:                                               ; preds = %80, %32
  %34 = load i32, i32* %3, align 4
  %35 = load i32, i32* %2, align 4
  %36 = icmp slt i32 %34, %35
  br i1 %36, label %37, label %83

37:                                               ; preds = %33
  %38 = load i32, i32* %3, align 4
  %39 = add nsw i32 %38, 1
  store i32 %39, i32* %4, align 4
  br label %40

40:                                               ; preds = %76, %37
  %41 = load i32, i32* %4, align 4
  %42 = load i32, i32* %2, align 4
  %43 = icmp slt i32 %41, %42
  br i1 %43, label %44, label %79

44:                                               ; preds = %40
  %45 = load i32, i32* %3, align 4
  %46 = sext i32 %45 to i64
  %47 = getelementptr inbounds [100 x %struct.ill], [100 x %struct.ill]* %6, i64 0, i64 %46
  %48 = getelementptr inbounds %struct.ill, %struct.ill* %47, i32 0, i32 1
  %49 = load i32, i32* %48, align 4
  %50 = load i32, i32* %4, align 4
  %51 = sext i32 %50 to i64
  %52 = getelementptr inbounds [100 x %struct.ill], [100 x %struct.ill]* %6, i64 0, i64 %51
  %53 = getelementptr inbounds %struct.ill, %struct.ill* %52, i32 0, i32 1
  %54 = load i32, i32* %53, align 4
  %55 = icmp slt i32 %49, %54
  br i1 %55, label %56, label %75

56:                                               ; preds = %44
  %57 = load i32, i32* %3, align 4
  %58 = sext i32 %57 to i64
  %59 = getelementptr inbounds [100 x %struct.ill], [100 x %struct.ill]* %6, i64 0, i64 %58
  %60 = bitcast %struct.ill* %7 to i8*
  %61 = bitcast %struct.ill* %59 to i8*
  call void @llvm.memcpy.p0i8.p0i8.i64(i8* align 4 %60, i8* align 4 %61, i64 20, i1 false)
  %62 = load i32, i32* %3, align 4
  %63 = sext i32 %62 to i64
  %64 = getelementptr inbounds [100 x %struct.ill], [100 x %struct.ill]* %6, i64 0, i64 %63
  %65 = load i32, i32* %4, align 4
  %66 = sext i32 %65 to i64
  %67 = getelementptr inbounds [100 x %struct.ill], [100 x %struct.ill]* %6, i64 0, i64 %66
  %68 = bitcast %struct.ill* %64 to i8*
  %69 = bitcast %struct.ill* %67 to i8*
  call void @llvm.memcpy.p0i8.p0i8.i64(i8* align 4 %68, i8* align 4 %69, i64 20, i1 false)
  %70 = load i32, i32* %4, align 4
  %71 = sext i32 %70 to i64
  %72 = getelementptr inbounds [100 x %struct.ill], [100 x %struct.ill]* %6, i64 0, i64 %71
  %73 = bitcast %struct.ill* %72 to i8*
  %74 = bitcast %struct.ill* %7 to i8*
  call void @llvm.memcpy.p0i8.p0i8.i64(i8* align 4 %73, i8* align 4 %74, i64 20, i1 false)
  br label %75

75:                                               ; preds = %56, %44
  br label %76

76:                                               ; preds = %75
  %77 = load i32, i32* %4, align 4
  %78 = add nsw i32 %77, 1
  store i32 %78, i32* %4, align 4
  br label %40

79:                                               ; preds = %40
  br label %80

80:                                               ; preds = %79
  %81 = load i32, i32* %3, align 4
  %82 = add nsw i32 %81, 1
  store i32 %82, i32* %3, align 4
  br label %33

83:                                               ; preds = %33
  store i32 0, i32* %3, align 4
  br label %84

84:                                               ; preds = %98, %83
  %85 = load i32, i32* %3, align 4
  %86 = load i32, i32* %2, align 4
  %87 = icmp slt i32 %85, %86
  br i1 %87, label %88, label %101

88:                                               ; preds = %84
  %89 = load i32, i32* %3, align 4
  %90 = sext i32 %89 to i64
  %91 = getelementptr inbounds [100 x %struct.ill], [100 x %struct.ill]* %6, i64 0, i64 %90
  %92 = getelementptr inbounds %struct.ill, %struct.ill* %91, i32 0, i32 1
  %93 = load i32, i32* %92, align 4
  %94 = icmp slt i32 %93, 60
  br i1 %94, label %95, label %97

95:                                               ; preds = %88
  %96 = load i32, i32* %3, align 4
  store i32 %96, i32* %5, align 4
  br label %101

97:                                               ; preds = %88
  br label %98

98:                                               ; preds = %97
  %99 = load i32, i32* %3, align 4
  %100 = add nsw i32 %99, 1
  store i32 %100, i32* %3, align 4
  br label %84

101:                                              ; preds = %95, %84
  store i32 0, i32* %3, align 4
  br label %102

102:                                              ; preds = %161, %101
  %103 = load i32, i32* %3, align 4
  %104 = load i32, i32* %5, align 4
  %105 = icmp slt i32 %103, %104
  br i1 %105, label %106, label %164

106:                                              ; preds = %102
  %107 = load i32, i32* %3, align 4
  %108 = add nsw i32 %107, 1
  store i32 %108, i32* %4, align 4
  br label %109

109:                                              ; preds = %157, %106
  %110 = load i32, i32* %4, align 4
  %111 = load i32, i32* %5, align 4
  %112 = icmp slt i32 %110, %111
  br i1 %112, label %113, label %160

113:                                              ; preds = %109
  %114 = load i32, i32* %3, align 4
  %115 = sext i32 %114 to i64
  %116 = getelementptr inbounds [100 x %struct.ill], [100 x %struct.ill]* %6, i64 0, i64 %115
  %117 = getelementptr inbounds %struct.ill, %struct.ill* %116, i32 0, i32 1
  %118 = load i32, i32* %117, align 4
  %119 = load i32, i32* %4, align 4
  %120 = sext i32 %119 to i64
  %121 = getelementptr inbounds [100 x %struct.ill], [100 x %struct.ill]* %6, i64 0, i64 %120
  %122 = getelementptr inbounds %struct.ill, %struct.ill* %121, i32 0, i32 1
  %123 = load i32, i32* %122, align 4
  %124 = icmp eq i32 %118, %123
  br i1 %124, label %125, label %156

125:                                              ; preds = %113
  %126 = load i32, i32* %3, align 4
  %127 = sext i32 %126 to i64
  %128 = getelementptr inbounds [100 x %struct.ill], [100 x %struct.ill]* %6, i64 0, i64 %127
  %129 = getelementptr inbounds %struct.ill, %struct.ill* %128, i32 0, i32 2
  %130 = load i32, i32* %129, align 4
  %131 = load i32, i32* %4, align 4
  %132 = sext i32 %131 to i64
  %133 = getelementptr inbounds [100 x %struct.ill], [100 x %struct.ill]* %6, i64 0, i64 %132
  %134 = getelementptr inbounds %struct.ill, %struct.ill* %133, i32 0, i32 2
  %135 = load i32, i32* %134, align 4
  %136 = icmp sgt i32 %130, %135
  br i1 %136, label %137, label %156

137:                                              ; preds = %125
  %138 = load i32, i32* %3, align 4
  %139 = sext i32 %138 to i64
  %140 = getelementptr inbounds [100 x %struct.ill], [100 x %struct.ill]* %6, i64 0, i64 %139
  %141 = bitcast %struct.ill* %7 to i8*
  %142 = bitcast %struct.ill* %140 to i8*
  call void @llvm.memcpy.p0i8.p0i8.i64(i8* align 4 %141, i8* align 4 %142, i64 20, i1 false)
  %143 = load i32, i32* %3, align 4
  %144 = sext i32 %143 to i64
  %145 = getelementptr inbounds [100 x %struct.ill], [100 x %struct.ill]* %6, i64 0, i64 %144
  %146 = load i32, i32* %4, align 4
  %147 = sext i32 %146 to i64
  %148 = getelementptr inbounds [100 x %struct.ill], [100 x %struct.ill]* %6, i64 0, i64 %147
  %149 = bitcast %struct.ill* %145 to i8*
  %150 = bitcast %struct.ill* %148 to i8*
  call void @llvm.memcpy.p0i8.p0i8.i64(i8* align 4 %149, i8* align 4 %150, i64 20, i1 false)
  %151 = load i32, i32* %4, align 4
  %152 = sext i32 %151 to i64
  %153 = getelementptr inbounds [100 x %struct.ill], [100 x %struct.ill]* %6, i64 0, i64 %152
  %154 = bitcast %struct.ill* %153 to i8*
  %155 = bitcast %struct.ill* %7 to i8*
  call void @llvm.memcpy.p0i8.p0i8.i64(i8* align 4 %154, i8* align 4 %155, i64 20, i1 false)
  br label %156

156:                                              ; preds = %137, %125, %113
  br label %157

157:                                              ; preds = %156
  %158 = load i32, i32* %4, align 4
  %159 = add nsw i32 %158, 1
  store i32 %159, i32* %4, align 4
  br label %109

160:                                              ; preds = %109
  br label %161

161:                                              ; preds = %160
  %162 = load i32, i32* %3, align 4
  %163 = add nsw i32 %162, 1
  store i32 %163, i32* %3, align 4
  br label %102

164:                                              ; preds = %102
  %165 = load i32, i32* %5, align 4
  store i32 %165, i32* %3, align 4
  br label %166

166:                                              ; preds = %213, %164
  %167 = load i32, i32* %3, align 4
  %168 = load i32, i32* %2, align 4
  %169 = icmp slt i32 %167, %168
  br i1 %169, label %170, label %216

170:                                              ; preds = %166
  %171 = load i32, i32* %3, align 4
  %172 = add nsw i32 %171, 1
  store i32 %172, i32* %4, align 4
  br label %173

173:                                              ; preds = %209, %170
  %174 = load i32, i32* %4, align 4
  %175 = load i32, i32* %2, align 4
  %176 = icmp slt i32 %174, %175
  br i1 %176, label %177, label %212

177:                                              ; preds = %173
  %178 = load i32, i32* %3, align 4
  %179 = sext i32 %178 to i64
  %180 = getelementptr inbounds [100 x %struct.ill], [100 x %struct.ill]* %6, i64 0, i64 %179
  %181 = getelementptr inbounds %struct.ill, %struct.ill* %180, i32 0, i32 2
  %182 = load i32, i32* %181, align 4
  %183 = load i32, i32* %4, align 4
  %184 = sext i32 %183 to i64
  %185 = getelementptr inbounds [100 x %struct.ill], [100 x %struct.ill]* %6, i64 0, i64 %184
  %186 = getelementptr inbounds %struct.ill, %struct.ill* %185, i32 0, i32 2
  %187 = load i32, i32* %186, align 4
  %188 = icmp sgt i32 %182, %187
  br i1 %188, label %189, label %208

189:                                              ; preds = %177
  %190 = load i32, i32* %3, align 4
  %191 = sext i32 %190 to i64
  %192 = getelementptr inbounds [100 x %struct.ill], [100 x %struct.ill]* %6, i64 0, i64 %191
  %193 = bitcast %struct.ill* %7 to i8*
  %194 = bitcast %struct.ill* %192 to i8*
  call void @llvm.memcpy.p0i8.p0i8.i64(i8* align 4 %193, i8* align 4 %194, i64 20, i1 false)
  %195 = load i32, i32* %3, align 4
  %196 = sext i32 %195 to i64
  %197 = getelementptr inbounds [100 x %struct.ill], [100 x %struct.ill]* %6, i64 0, i64 %196
  %198 = load i32, i32* %4, align 4
  %199 = sext i32 %198 to i64
  %200 = getelementptr inbounds [100 x %struct.ill], [100 x %struct.ill]* %6, i64 0, i64 %199
  %201 = bitcast %struct.ill* %197 to i8*
  %202 = bitcast %struct.ill* %200 to i8*
  call void @llvm.memcpy.p0i8.p0i8.i64(i8* align 4 %201, i8* align 4 %202, i64 20, i1 false)
  %203 = load i32, i32* %4, align 4
  %204 = sext i32 %203 to i64
  %205 = getelementptr inbounds [100 x %struct.ill], [100 x %struct.ill]* %6, i64 0, i64 %204
  %206 = bitcast %struct.ill* %205 to i8*
  %207 = bitcast %struct.ill* %7 to i8*
  call void @llvm.memcpy.p0i8.p0i8.i64(i8* align 4 %206, i8* align 4 %207, i64 20, i1 false)
  br label %208

208:                                              ; preds = %189, %177
  br label %209

209:                                              ; preds = %208
  %210 = load i32, i32* %4, align 4
  %211 = add nsw i32 %210, 1
  store i32 %211, i32* %4, align 4
  br label %173

212:                                              ; preds = %173
  br label %213

213:                                              ; preds = %212
  %214 = load i32, i32* %3, align 4
  %215 = add nsw i32 %214, 1
  store i32 %215, i32* %3, align 4
  br label %166

216:                                              ; preds = %166
  store i32 0, i32* %3, align 4
  br label %217

217:                                              ; preds = %228, %216
  %218 = load i32, i32* %3, align 4
  %219 = load i32, i32* %2, align 4
  %220 = icmp slt i32 %218, %219
  br i1 %220, label %221, label %231

221:                                              ; preds = %217
  %222 = load i32, i32* %3, align 4
  %223 = sext i32 %222 to i64
  %224 = getelementptr inbounds [100 x %struct.ill], [100 x %struct.ill]* %6, i64 0, i64 %223
  %225 = getelementptr inbounds %struct.ill, %struct.ill* %224, i32 0, i32 0
  %226 = getelementptr inbounds [10 x i8], [10 x i8]* %225, i64 0, i64 0
  %227 = call i32 (i8*, ...) @printf(i8* getelementptr inbounds ([4 x i8], [4 x i8]* @.str.2, i64 0, i64 0), i8* %226)
  br label %228

228:                                              ; preds = %221
  %229 = load i32, i32* %3, align 4
  %230 = add nsw i32 %229, 1
  store i32 %230, i32* %3, align 4
  br label %217

231:                                              ; preds = %217
  store i32 0, i32* %3, align 4
  br label %232

232:                                              ; preds = %237, %231
  %233 = load i32, i32* %3, align 4
  %234 = load i32, i32* %2, align 4
  %235 = icmp slt i32 %233, %234
  br i1 %235, label %236, label %240

236:                                              ; preds = %232
  br label %237

237:                                              ; preds = %236
  %238 = load i32, i32* %3, align 4
  %239 = add nsw i32 %238, 1
  store i32 %239, i32* %3, align 4
  br label %232

240:                                              ; preds = %232
  ret i32 0
}